target datalayout = "e-m:e-p270:32:32-p271:32:32-p272:64:64-i64:64-i128:128-f80:128-n8:16:32:64-S128"
target triple = "x86_64-pc-linux-gnu"

%"class.osgeo::proj::util::PropertyMap" = type { %"class.std::unique_ptr" }
%"class.std::unique_ptr" = type { %"struct.std::__uniq_ptr_data" }
%"struct.std::__uniq_ptr_data" = type { %"class.std::__uniq_ptr_impl" }
%"class.std::__uniq_ptr_impl" = type { %"class.std::tuple" }
%"class.std::tuple" = type { %"struct.std::_Tuple_impl" }
%"struct.std::_Tuple_impl" = type { %"struct.std::_Head_base.1" }
%"struct.std::_Head_base.1" = type { ptr }
%"struct.osgeo::proj::operation::MethodNameCode" = type { ptr, i32 }

; Function Attrs: mustprogress uwtable
define hidden void @_ZN5osgeo4proj9operation27createMethodMapNameEPSGCodeEi(ptr dead_on_unwind noalias writable sret(%"class.osgeo::proj::util::PropertyMap") align 8 %0, i32 noundef %1) #0 {
  %3 = alloca ptr, align 8
  %4 = alloca i32, align 4
  %5 = alloca ptr, align 8
  %6 = alloca i64, align 8
  %7 = alloca ptr, align 8
  %8 = alloca i64, align 8
  %9 = alloca i32, align 4
  %10 = alloca ptr, align 8
  store ptr %0, ptr %3, align 8
  store i32 %1, ptr %4, align 4, !tbaa !3
  call void @llvm.lifetime.start.p0(i64 8, ptr %5) #9
  store ptr null, ptr %5, align 8, !tbaa !7
  call void @llvm.lifetime.start.p0(i64 8, ptr %6) #9
  store i64 0, ptr %6, align 8, !tbaa !10
  call void @llvm.lifetime.start.p0(i64 8, ptr %7) #9
  %11 = call noundef ptr @_ZN5osgeo4proj9operation18getMethodNameCodesERm(ptr noundef nonnull align 8 dereferenceable(8) %6)
  store ptr %11, ptr %7, align 8, !tbaa !12
  call void @llvm.lifetime.start.p0(i64 8, ptr %8) #9
  store i64 0, ptr %8, align 8, !tbaa !10
  br label %12

12:                                               ; preds = %34, %2
  %13 = load i64, ptr %8, align 8, !tbaa !10
  %14 = load i64, ptr %6, align 8, !tbaa !10
  %15 = icmp ult i64 %13, %14
  br i1 %15, label %17, label %16

16:                                               ; preds = %12
  store i32 2, ptr %9, align 4
  br label %37

17:                                               ; preds = %12
  call void @llvm.lifetime.start.p0(i64 8, ptr %10) #9
  %18 = load ptr, ptr %7, align 8, !tbaa !12
  %19 = load i64, ptr %8, align 8, !tbaa !10
  %20 = getelementptr inbounds nuw %"struct.osgeo::proj::operation::MethodNameCode", ptr %18, i64 %19
  store ptr %20, ptr %10, align 8, !tbaa !12
  %21 = load ptr, ptr %10, align 8, !tbaa !12
  %22 = getelementptr inbounds nuw %"struct.osgeo::proj::operation::MethodNameCode", ptr %21, i32 0, i32 1
  %23 = load i32, ptr %22, align 8, !tbaa !14
  %24 = load i32, ptr %4, align 4, !tbaa !3
  %25 = icmp eq i32 %23, %24
  br i1 %25, label %26, label %30

26:                                               ; preds = %17
  %27 = load ptr, ptr %10, align 8, !tbaa !12
  %28 = getelementptr inbounds nuw %"struct.osgeo::proj::operation::MethodNameCode", ptr %27, i32 0, i32 0
  %29 = load ptr, ptr %28, align 8, !tbaa !16
  store ptr %29, ptr %5, align 8, !tbaa !7
  store i32 2, ptr %9, align 4
  br label %31

30:                                               ; preds = %17
  store i32 0, ptr %9, align 4
  br label %31

31:                                               ; preds = %30, %26
  call void @llvm.lifetime.end.p0(i64 8, ptr %10) #9
  %32 = load i32, ptr %9, align 4
  switch i32 %32, label %37 [
    i32 0, label %33
  ]

33:                                               ; preds = %31
  br label %34

34:                                               ; preds = %33
  %35 = load i64, ptr %8, align 8, !tbaa !10
  %36 = add i64 %35, 1
  store i64 %36, ptr %8, align 8, !tbaa !10
  br label %12, !llvm.loop !17

37:                                               ; preds = %31, %16
  call void @llvm.lifetime.end.p0(i64 8, ptr %8) #9
  br label %38

38:                                               ; preds = %37
  %39 = load ptr, ptr %5, align 8, !tbaa !7
  %40 = load i32, ptr %4, align 4, !tbaa !3
  call void @_ZN5osgeo4proj9operation21createMapNameEPSGCodeEPKci(ptr dead_on_unwind writable sret(%"class.osgeo::proj::util::PropertyMap") align 8 %0, ptr noundef %39, i32 noundef %40)
  store i32 1, ptr %9, align 4
  call void @llvm.lifetime.end.p0(i64 8, ptr %7) #9
  call void @llvm.lifetime.end.p0(i64 8, ptr %6) #9
  call void @llvm.lifetime.end.p0(i64 8, ptr %5) #9
  ret void
}