; Function Attrs: mustprogress uwtable
define hidden void @_ZN5osgeo4proj9operation27createMethodMapNameEPSGCodeEi(ptr dead_on_unwind noalias writable sret(%"class.osgeo::proj::util::PropertyMap") align 8 %0, i32 noundef %1) local_unnamed_addr #0 {
  %3 = alloca i64, align 8
  call void @llvm.lifetime.start.p0(i64 8, ptr nonnull %3) #25
  store i64 0, ptr %3, align 8, !tbaa !3
  %4 = call noundef ptr @_ZN5osgeo4proj9operation18getMethodNameCodesERm(ptr noundef nonnull align 8 dereferenceable(8) %3)
  %5 = load i64, ptr %3, align 8, !tbaa !3
  %.not13 = icmp eq i64 %5, 0
  br i1 %.not13, label %.loopexit, label %.lr.ph

6:                                                ; preds = %.lr.ph
  %7 = add nuw i64 %.01012, 1
  %exitcond.not = icmp eq i64 %7, %5
  br i1 %exitcond.not, label %.loopexit, label %.lr.ph, !llvm.loop !7

.lr.ph:                                           ; preds = %2, %6
  %.01012 = phi i64 [ %7, %6 ], [ 0, %2 ]
  %8 = getelementptr inbounds nuw %"struct.osgeo::proj::operation::MethodNameCode", ptr %4, i64 %.01012
  %9 = getelementptr inbounds nuw i8, ptr %8, i64 8
  %10 = load i32, ptr %9, align 8, !tbaa !9
  %.not = icmp eq i32 %10, %1
  br i1 %.not, label %.thread, label %6

.thread:                                          ; preds = %.lr.ph
  %11 = load ptr, ptr %8, align 8, !tbaa !14
  br label %.loopexit

.loopexit:                                        ; preds = %6, %2, %.thread
  %.1 = phi ptr [ %11, %.thread ], [ null, %2 ], [ null, %6 ]
  call void @_ZN5osgeo4proj9operation21createMapNameEPSGCodeEPKci(ptr dead_on_unwind writable sret(%"class.osgeo::proj::util::PropertyMap") align 8 %0, ptr noundef %.1, i32 noundef %1)
  call void @llvm.lifetime.end.p0(i64 8, ptr nonnull %3) #25
  ret void
}